; Function Attrs: nounwind uwtable
define hidden zeroext i1 @SDL_LockSurface_REAL(ptr noundef %0) local_unnamed_addr #2 {
  %.not.i = icmp eq ptr %0, null
  br i1 %.not.i, label %SDL_SurfaceValid.exit.thread, label %SDL_SurfaceValid.exit

SDL_SurfaceValid.exit:                            ; preds = %1
  %2 = getelementptr inbounds nuw i8, ptr %0, i64 40
  %3 = load ptr, ptr %2, align 8
  %4 = icmp eq ptr %3, @SDL_surface_magic
  br i1 %4, label %6, label %SDL_SurfaceValid.exit.thread

SDL_SurfaceValid.exit.thread:                     ; preds = %1, %SDL_SurfaceValid.exit
  %5 = tail call zeroext i1 (ptr, ...) @SDL_SetError_REAL(ptr noundef nonnull @.str, ptr noundef nonnull @.str.5) #10
  br label %21

6:                                                ; preds = %SDL_SurfaceValid.exit
  %7 = getelementptr inbounds nuw i8, ptr %0, i64 96
  %8 = load i32, ptr %7, align 8
  %.not = icmp eq i32 %8, 0
  br i1 %.not, label %9, label %16

9:                                                ; preds = %6
  %10 = getelementptr inbounds nuw i8, ptr %0, i64 48
  %11 = load i32, ptr %10, align 8
  %12 = and i32 %11, 4
  %.not8 = icmp eq i32 %12, 0
  br i1 %.not8, label %16, label %13

13:                                               ; preds = %9
  tail call void @SDL_UnRLESurface(ptr noundef nonnull %0, i1 noundef zeroext true) #10
  %14 = load i32, ptr %10, align 8
  %15 = or i32 %14, 4
  store i32 %15, ptr %10, align 8
  %.pre = load i32, ptr %7, align 8
  br label %16

16:                                               ; preds = %9, %13, %6
  %17 = phi i32 [ 0, %9 ], [ %.pre, %13 ], [ %8, %6 ]
  %18 = add nsw i32 %17, 1
  store i32 %18, ptr %7, align 8
  %19 = load i32, ptr %0, align 8
  %20 = or i32 %19, 4
  store i32 %20, ptr %0, align 8
  br label %21

21:                                               ; preds = %16, %SDL_SurfaceValid.exit.thread
  %.0 = phi i1 [ true, %16 ], [ %5, %SDL_SurfaceValid.exit.thread ]
  ret i1 %.0
}